target datalayout = "e-m:e-p270:32:32-p271:32:32-p272:64:64-i64:64-i128:128-f80:128-n8:16:32:64-S128"
target triple = "x86_64-pc-linux-gnu"

%struct.compiler_common = type { ptr, ptr, ptr, ptr, ptr, ptr, ptr, ptr, i32, i32, i32, i32, i32, i32, i32, i32, i32, i32, i32, ptr, i32, i32, i32, ptr, ptr, i64, i32, i32, i32, i32, i32, i32, i32, i32, i32, i32, i32, i32, i32, i32, i32, i32, i32, i64, ptr, i64, i64, ptr, ptr, ptr, ptr, ptr, ptr, ptr, ptr, ptr, ptr, ptr, ptr, ptr, ptr, ptr, ptr, ptr, ptr, ptr, ptr, ptr, ptr, ptr, ptr, ptr, ptr, i32, i32, i32, i32, i32, i32, ptr, ptr, ptr, ptr, ptr, ptr, ptr, ptr, ptr }
%struct.sljit_jump = type { ptr, i64, i64, %union.anon.0 }
%union.anon.0 = type { i64 }

; Function Attrs: nounwind uwtable
define internal void @sljit_set_label(ptr noundef %0, ptr noundef %1) #0 {
  %3 = alloca ptr, align 8
  %4 = alloca ptr, align 8
  store ptr %0, ptr %3, align 8
  store ptr %1, ptr %4, align 8
  %5 = load ptr, ptr %3, align 8
  %6 = icmp ne ptr %5, null
  %7 = xor i1 %6, true
  %8 = xor i1 %7, true
  %9 = zext i1 %8 to i32
  %10 = sext i32 %9 to i64
  %11 = icmp ne i64 %10, 0
  br i1 %11, label %12, label %32

12:                                               ; preds = %2
  %13 = load ptr, ptr %4, align 8
  %14 = icmp ne ptr %13, null
  %15 = xor i1 %14, true
  %16 = xor i1 %15, true
  %17 = zext i1 %16 to i32
  %18 = sext i32 %17 to i64
  %19 = icmp ne i64 %18, 0
  br i1 %19, label %20, label %32

20:                                               ; preds = %12
  %21 = load ptr, ptr %3, align 8
  %22 = getelementptr inbounds %struct.sljit_jump, ptr %21, i32 0, i32 2
  %23 = load i64, ptr %22, align 8
  %24 = and i64 %23, -3
  store i64 %24, ptr %22, align 8
  %25 = load ptr, ptr %3, align 8
  %26 = getelementptr inbounds %struct.sljit_jump, ptr %25, i32 0, i32 2
  %27 = load i64, ptr %26, align 8
  %28 = or i64 %27, 1
  store i64 %28, ptr %26, align 8
  %29 = load ptr, ptr %4, align 8
  %30 = load ptr, ptr %3, align 8
  %31 = getelementptr inbounds %struct.sljit_jump, ptr %30, i32 0, i32 3
  store ptr %29, ptr %31, align 8
  br label %32

32:                                               ; preds = %20, %12, %2
  ret void
}

; Function Attrs: nounwind uwtable
define internal void @detect_partial_match_to(ptr noundef %0, ptr noundef %1) #0 {
  %3 = alloca ptr, align 8
  %4 = alloca ptr, align 8
  %5 = alloca ptr, align 8
  store ptr %0, ptr %3, align 8
  store ptr %1, ptr %4, align 8
  %6 = load ptr, ptr %3, align 8
  %7 = getelementptr inbounds %struct.compiler_common, ptr %6, i32 0, i32 0
  %8 = load ptr, ptr %7, align 8
  store ptr %8, ptr %5, align 8
  %9 = load ptr, ptr %5, align 8
  %10 = call ptr @sljit_emit_cmp(ptr noundef %9, i32 noundef 2, i32 noundef 2, i64 noundef 0, i32 noundef 13, i64 noundef 0)
  %11 = load ptr, ptr %4, align 8
  call void @sljit_set_label(ptr noundef %10, ptr noundef %11)
  %12 = load ptr, ptr %3, align 8
  call void @process_partial_match(ptr noundef %12)
  ret void
}