; Function Attrs: nounwind uwtable
define internal fastcc void @detect_partial_match_to(ptr nocapture noundef %0, ptr noundef %1) unnamed_addr #0 {
  %3 = load ptr, ptr %0, align 8
  %4 = tail call fastcc ptr @sljit_emit_cmp(ptr noundef %3, i32 noundef 2, i32 noundef 2, i64 noundef 0, i32 noundef 13, i64 noundef 0)
  %.not.i = icmp eq ptr %4, null
  %.not7.i = icmp eq ptr %1, null
  %or.cond.i = or i1 %.not7.i, %.not.i
  br i1 %or.cond.i, label %sljit_set_label.exit, label %5

5:                                                ; preds = %2
  %6 = getelementptr inbounds i8, ptr %4, i64 16
  %7 = load i64, ptr %6, align 8
  %8 = and i64 %7, -4
  %9 = or disjoint i64 %8, 1
  store i64 %9, ptr %6, align 8
  %10 = getelementptr inbounds i8, ptr %4, i64 24
  store ptr %1, ptr %10, align 8
  br label %sljit_set_label.exit

sljit_set_label.exit:                             ; preds = %2, %5
  tail call fastcc void @process_partial_match(ptr noundef nonnull %0)
  ret void
}